; ModuleID = '31/493.c'
source_filename = "31/493.c"
target datalayout = "e-m:e-p270:32:32-p271:32:32-p272:64:64-i64:64-f80:128-n8:16:32:64-S128"
target triple = "x86_64-pc-linux-gnu"

%struct.student = type { [20 x i8], [20 x i8], [20 x i8], [20 x i8], [20 x i8], [20 x i8], %struct.student* }

@n = common dso_local global i32 0, align 4
@.str = private unnamed_addr constant [3 x i8] c"%s\00", align 1
@.str.1 = private unnamed_addr constant [4 x i8] c"end\00", align 1
@.str.2 = private unnamed_addr constant [11 x i8] c"%s%s%s%s%s\00", align 1
@.str.3 = private unnamed_addr constant [18 x i8] c"%s %s %s %s %s %s\00", align 1
@.str.4 = private unnamed_addr constant [2 x i8] c"\0A\00", align 1

; Function Attrs: noinline nounwind uwtable
define dso_local void @main() #0 {
  %1 = alloca i32, align 4
  %2 = alloca %struct.student*, align 8
  %3 = alloca %struct.student*, align 8
  %4 = alloca %struct.student*, align 8
  %5 = alloca %struct.student*, align 8
  %6 = alloca %struct.student*, align 8
  store i32 0, i32* @n, align 4
  %7 = call noalias i8* @malloc(i64 100) #4
  %8 = bitcast i8* %7 to %struct.student*
  store %struct.student* %8, %struct.student** %4, align 8
  store %struct.student* %8, %struct.student** %3, align 8
  %9 = load %struct.student*, %struct.student** %3, align 8
  %10 = getelementptr inbounds %struct.student, %struct.student* %9, i32 0, i32 0
  %11 = getelementptr inbounds [20 x i8], [20 x i8]* %10, i64 0, i64 0
  %12 = call i32 (i8*, ...) @__isoc99_scanf(i8* getelementptr inbounds ([3 x i8], [3 x i8]* @.str, i64 0, i64 0), i8* %11)
  br label %13

13:                                               ; preds = %46, %0
  %14 = load %struct.student*, %struct.student** %3, align 8
  %15 = getelementptr inbounds %struct.student, %struct.student* %14, i32 0, i32 0
  %16 = getelementptr inbounds [20 x i8], [20 x i8]* %15, i64 0, i64 0
  %17 = call i32 @strcmp(i8* %16, i8* getelementptr inbounds ([4 x i8], [4 x i8]* @.str.1, i64 0, i64 0)) #5
  %18 = icmp ne i32 %17, 0
  br i1 %18, label %19, label %54

19:                                               ; preds = %13
  %20 = load %struct.student*, %struct.student** %3, align 8
  %21 = getelementptr inbounds %struct.student, %struct.student* %20, i32 0, i32 1
  %22 = getelementptr inbounds [20 x i8], [20 x i8]* %21, i64 0, i64 0
  %23 = load %struct.student*, %struct.student** %3, align 8
  %24 = getelementptr inbounds %struct.student, %struct.student* %23, i32 0, i32 2
  %25 = getelementptr inbounds [20 x i8], [20 x i8]* %24, i64 0, i64 0
  %26 = load %struct.student*, %struct.student** %3, align 8
  %27 = getelementptr inbounds %struct.student, %struct.student* %26, i32 0, i32 3
  %28 = getelementptr inbounds [20 x i8], [20 x i8]* %27, i64 0, i64 0
  %29 = load %struct.student*, %struct.student** %3, align 8
  %30 = getelementptr inbounds %struct.student, %struct.student* %29, i32 0, i32 4
  %31 = getelementptr inbounds [20 x i8], [20 x i8]* %30, i64 0, i64 0
  %32 = load %struct.student*, %struct.student** %3, align 8
  %33 = getelementptr inbounds %struct.student, %struct.student* %32, i32 0, i32 5
  %34 = getelementptr inbounds [20 x i8], [20 x i8]* %33, i64 0, i64 0
  %35 = call i32 (i8*, ...) @__isoc99_scanf(i8* getelementptr inbounds ([11 x i8], [11 x i8]* @.str.2, i64 0, i64 0), i8* %22, i8* %25, i8* %28, i8* %31, i8* %34)
  %36 = load i32, i32* @n, align 4
  %37 = add nsw i32 %36, 1
  store i32 %37, i32* @n, align 4
  %38 = load i32, i32* @n, align 4
  %39 = icmp eq i32 %38, 1
  br i1 %39, label %40, label %42

40:                                               ; preds = %19
  %41 = load %struct.student*, %struct.student** %3, align 8
  store %struct.student* %41, %struct.student** %2, align 8
  br label %46

42:                                               ; preds = %19
  %43 = load %struct.student*, %struct.student** %3, align 8
  %44 = load %struct.student*, %struct.student** %4, align 8
  %45 = getelementptr inbounds %struct.student, %struct.student* %44, i32 0, i32 6
  store %struct.student* %43, %struct.student** %45, align 8
  br label %46

46:                                               ; preds = %42, %40
  %47 = load %struct.student*, %struct.student** %3, align 8
  store %struct.student* %47, %struct.student** %4, align 8
  %48 = call noalias i8* @malloc(i64 100) #4
  %49 = bitcast i8* %48 to %struct.student*
  store %struct.student* %49, %struct.student** %3, align 8
  %50 = load %struct.student*, %struct.student** %3, align 8
  %51 = getelementptr inbounds %struct.student, %struct.student* %50, i32 0, i32 0
  %52 = getelementptr inbounds [20 x i8], [20 x i8]* %51, i64 0, i64 0
  %53 = call i32 (i8*, ...) @__isoc99_scanf(i8* getelementptr inbounds ([3 x i8], [3 x i8]* @.str, i64 0, i64 0), i8* %52)
  br label %13

54:                                               ; preds = %13
  %55 = load %struct.student*, %struct.student** %4, align 8
  %56 = getelementptr inbounds %struct.student, %struct.student* %55, i32 0, i32 6
  store %struct.student* null, %struct.student** %56, align 8
  store i32 0, i32* %1, align 4
  br label %57

57:                                               ; preds = %85, %54
  %58 = load i32, i32* %1, align 4
  %59 = load i32, i32* @n, align 4
  %60 = icmp slt i32 %58, %59
  br i1 %60, label %61, label %88

61:                                               ; preds = %57
  %62 = load %struct.student*, %struct.student** %2, align 8
  store %struct.student* %62, %struct.student** %3, align 8
  store %struct.student* %62, %struct.student** %4, align 8
  br label %63

63:                                               ; preds = %68, %61
  %64 = load %struct.student*, %struct.student** %3, align 8
  %65 = getelementptr inbounds %struct.student, %struct.student* %64, i32 0, i32 6
  %66 = load %struct.student*, %struct.student** %65, align 8
  %67 = icmp ne %struct.student* %66, null
  br i1 %67, label %68, label %73

68:                                               ; preds = %63
  %69 = load %struct.student*, %struct.student** %3, align 8
  store %struct.student* %69, %struct.student** %4, align 8
  %70 = load %struct.student*, %struct.student** %3, align 8
  %71 = getelementptr inbounds %struct.student, %struct.student* %70, i32 0, i32 6
  %72 = load %struct.student*, %struct.student** %71, align 8
  store %struct.student* %72, %struct.student** %3, align 8
  br label %63

73:                                               ; preds = %63
  %74 = load i32, i32* %1, align 4
  %75 = icmp eq i32 %74, 0
  br i1 %75, label %76, label %78

76:                                               ; preds = %73
  %77 = load %struct.student*, %struct.student** %3, align 8
  store %struct.student* %77, %struct.student** %6, align 8
  store %struct.student* %77, %struct.student** %5, align 8
  br label %82

78:                                               ; preds = %73
  %79 = load %struct.student*, %struct.student** %3, align 8
  %80 = load %struct.student*, %struct.student** %6, align 8
  %81 = getelementptr inbounds %struct.student, %struct.student* %80, i32 0, i32 6
  store %struct.student* %79, %struct.student** %81, align 8
  store %struct.student* %79, %struct.student** %6, align 8
  br label %82

82:                                               ; preds = %78, %76
  %83 = load %struct.student*, %struct.student** %4, align 8
  %84 = getelementptr inbounds %struct.student, %struct.student* %83, i32 0, i32 6
  store %struct.student* null, %struct.student** %84, align 8
  br label %85

85:                                               ; preds = %82
  %86 = load i32, i32* %1, align 4
  %87 = add nsw i32 %86, 1
  store i32 %87, i32* %1, align 4
  br label %57

88:                                               ; preds = %57
  %89 = load %struct.student*, %struct.student** %5, align 8
  store %struct.student* %89, %struct.student** %3, align 8
  store i32 0, i32* %1, align 4
  br label %90

90:                                               ; preds = %118, %88
  %91 = load i32, i32* %1, align 4
  %92 = load i32, i32* @n, align 4
  %93 = icmp slt i32 %91, %92
  br i1 %93, label %94, label %121

94:                                               ; preds = %90
  %95 = load %struct.student*, %struct.student** %3, align 8
  %96 = getelementptr inbounds %struct.student, %struct.student* %95, i32 0, i32 0
  %97 = getelementptr inbounds [20 x i8], [20 x i8]* %96, i64 0, i64 0
  %98 = load %struct.student*, %struct.student** %3, align 8
  %99 = getelementptr inbounds %struct.student, %struct.student* %98, i32 0, i32 1
  %100 = getelementptr inbounds [20 x i8], [20 x i8]* %99, i64 0, i64 0
  %101 = load %struct.student*, %struct.student** %3, align 8
  %102 = getelementptr inbounds %struct.student, %struct.student* %101, i32 0, i32 2
  %103 = getelementptr inbounds [20 x i8], [20 x i8]* %102, i64 0, i64 0
  %104 = load %struct.student*, %struct.student** %3, align 8
  %105 = getelementptr inbounds %struct.student, %struct.student* %104, i32 0, i32 3
  %106 = getelementptr inbounds [20 x i8], [20 x i8]* %105, i64 0, i64 0
  %107 = load %struct.student*, %struct.student** %3, align 8
  %108 = getelementptr inbounds %struct.student, %struct.student* %107, i32 0, i32 4
  %109 = getelementptr inbounds [20 x i8], [20 x i8]* %108, i64 0, i64 0
  %110 = load %struct.student*, %struct.student** %3, align 8
  %111 = getelementptr inbounds %struct.student, %struct.student* %110, i32 0, i32 5
  %112 = getelementptr inbounds [20 x i8], [20 x i8]* %111, i64 0, i64 0
  %113 = call i32 (i8*, ...) @printf(i8* getelementptr inbounds ([18 x i8], [18 x i8]* @.str.3, i64 0, i64 0), i8* %97, i8* %100, i8* %103, i8* %106, i8* %109, i8* %112)
  %114 = load %struct.student*, %struct.student** %3, align 8
  %115 = getelementptr inbounds %struct.student, %struct.student* %114, i32 0, i32 6
  %116 = load %struct.student*, %struct.student** %115, align 8
  store %struct.student* %116, %struct.student** %3, align 8
  %117 = call i32 (i8*, ...) @printf(i8* getelementptr inbounds ([2 x i8], [2 x i8]* @.str.4, i64 0, i64 0))
  br label %118

118:                                              ; preds = %94
  %119 = load i32, i32* %1, align 4
  %120 = add nsw i32 %119, 1
  store i32 %120, i32* %1, align 4
  br label %90

121:                                              ; preds = %90
  ret void
}

; Function Attrs: nounwind
declare dso_local noalias i8* @malloc(i64) #1

declare dso_local i32 @__isoc99_scanf(i8*, ...) #2

; Function Attrs: nounwind readonly
declare dso_local i32 @strcmp(i8*, i8*) #3

declare dso_local i32 @printf(i8*, ...) #2


!llvm.module.flags = !{!0}
!llvm.ident = !{!1}

!0 = !{i32 1, !"wchar_size", i32 4}
!1 = !{!"clang version 10.0.0-4ubuntu1 "}
